; Function Attrs: nounwind uwtable
define hidden void @zim_DOMText___construct(ptr nocapture noundef readonly %0, ptr nocapture noundef readnone %1) local_unnamed_addr #0 {
  %3 = alloca ptr, align 8
  %4 = alloca i64, align 8
  store ptr null, ptr %3, align 8
  %5 = getelementptr inbounds i8, ptr %0, i64 32
  %6 = getelementptr inbounds i8, ptr %0, i64 44
  %7 = load i32, ptr %6, align 4
  %8 = call i32 (i32, ptr, ...) @zend_parse_parameters(i32 noundef %7, ptr noundef nonnull @.str, ptr noundef nonnull %3, ptr noundef nonnull %4) #6
  %9 = icmp eq i32 %8, -1
  br i1 %9, label %10, label %13

10:                                               ; preds = %2
  %11 = load ptr, ptr getelementptr inbounds (%struct._zend_executor_globals, ptr @executor_globals, i64 0, i32 50), align 8
  %12 = icmp ne ptr %11, null
  call void @llvm.assume(i1 %12)
  br label %26

13:                                               ; preds = %2
  %14 = load ptr, ptr %3, align 8
  %15 = call ptr @xmlNewText(ptr noundef %14) #6
  %.not = icmp eq ptr %15, null
  br i1 %.not, label %16, label %19

16:                                               ; preds = %13
  call void @php_dom_throw_error(i32 noundef 11, i32 noundef 1) #6
  %17 = load ptr, ptr getelementptr inbounds (%struct._zend_executor_globals, ptr @executor_globals, i64 0, i32 50), align 8
  %18 = icmp ne ptr %17, null
  call void @llvm.assume(i1 %18)
  br label %26

19:                                               ; preds = %13
  %20 = load ptr, ptr %5, align 8
  %21 = getelementptr inbounds i8, ptr %20, i64 -24
  %22 = call ptr @dom_object_get_node(ptr noundef nonnull %21) #6
  %.not9 = icmp eq ptr %22, null
  br i1 %.not9, label %24, label %23

23:                                               ; preds = %19
  call void @php_libxml_node_decrement_resource(ptr noundef nonnull %21) #6
  br label %24

24:                                               ; preds = %23, %19
  %25 = call i32 @php_libxml_increment_node_ptr(ptr noundef nonnull %21, ptr noundef nonnull %15, ptr noundef nonnull %21) #6
  br label %26

26:                                               ; preds = %24, %16, %10
  ret void
}